target datalayout = "e-m:e-p270:32:32-p271:32:32-p272:64:64-i64:64-i128:128-f80:128-n8:16:32:64-S128"
target triple = "x86_64-pc-linux-gnu"

; Function Attrs: mustprogress uwtable
define i32 @cvSetCaptureProperty(ptr noundef %0, i32 noundef %1, double noundef %2) #4 {
  %4 = alloca ptr, align 8
  %5 = alloca i32, align 4
  %6 = alloca double, align 8
  store ptr %0, ptr %4, align 8, !tbaa !36
  store i32 %1, ptr %5, align 4, !tbaa !3
  store double %2, ptr %6, align 8, !tbaa !25
  %7 = load ptr, ptr %4, align 8, !tbaa !36
  %8 = icmp ne ptr %7, null
  br i1 %8, label %9, label %18

9:                                                ; preds = %3
  %10 = load ptr, ptr %4, align 8, !tbaa !36
  %11 = load i32, ptr %5, align 4, !tbaa !3
  %12 = load double, ptr %6, align 8, !tbaa !25
  %13 = load ptr, ptr %10, align 8, !tbaa !18
  %14 = getelementptr inbounds ptr, ptr %13, i64 3
  %15 = load ptr, ptr %14, align 8
  %16 = call noundef zeroext i1 %15(ptr noundef nonnull align 8 dereferenceable(8) %10, i32 noundef %11, double noundef %12)
  %17 = zext i1 %16 to i32
  br label %19

18:                                               ; preds = %3
  br label %19

19:                                               ; preds = %18, %9
  %20 = phi i32 [ %17, %9 ], [ 0, %18 ]
  ret i32 %20
}