; Function Attrs: mustprogress uwtable
define range(i32 0, 2) i32 @cvSetCaptureProperty(ptr noundef %0, i32 noundef %1, double noundef %2) local_unnamed_addr #3 {
  %.not = icmp eq ptr %0, null
  br i1 %.not, label %10, label %4

4:                                                ; preds = %3
  %5 = load ptr, ptr %0, align 8, !tbaa !30
  %6 = getelementptr inbounds nuw i8, ptr %5, i64 24
  %7 = load ptr, ptr %6, align 8
  %8 = tail call noundef zeroext i1 %7(ptr noundef nonnull align 8 dereferenceable(8) %0, i32 noundef %1, double noundef %2)
  %9 = zext i1 %8 to i32
  br label %10

10:                                               ; preds = %3, %4
  %11 = phi i32 [ %9, %4 ], [ 0, %3 ]
  ret i32 %11
}